target datalayout = "e-m:e-p270:32:32-p271:32:32-p272:64:64-i64:64-i128:128-f80:128-n8:16:32:64-S128"
target triple = "x86_64-pc-linux-gnu"

%struct.prov_cipher_ctx_st = type { [16 x i8], [16 x i8], [16 x i8], ptr, %union.anon, i32, i64, i64, i64, i64, i32, i8, i32, ptr, i32, i64, i32, i64, i32, ptr, ptr, ptr }
%union.anon = type { ptr }
%struct.prov_cipher_hw_chacha_aead_st = type { %struct.prov_cipher_hw_st, ptr, ptr, ptr, ptr }
%struct.prov_cipher_hw_st = type { ptr, ptr, ptr }

; Function Attrs: nounwind uwtable
define internal i32 @chacha20_poly1305_einit(ptr noundef %0, ptr noundef %1, i64 noundef %2, ptr noundef %3, i64 noundef %4, ptr noundef %5) #0 {
  %7 = alloca ptr, align 8
  %8 = alloca ptr, align 8
  %9 = alloca i64, align 8
  %10 = alloca ptr, align 8
  %11 = alloca i64, align 8
  %12 = alloca ptr, align 8
  %13 = alloca i32, align 4
  %14 = alloca ptr, align 8
  %15 = alloca ptr, align 8
  store ptr %0, ptr %7, align 8, !tbaa !3
  store ptr %1, ptr %8, align 8, !tbaa !22
  store i64 %2, ptr %9, align 8, !tbaa !23
  store ptr %3, ptr %10, align 8, !tbaa !22
  store i64 %4, ptr %11, align 8, !tbaa !23
  store ptr %5, ptr %12, align 8, !tbaa !24
  call void @llvm.lifetime.start.p0(i64 4, ptr %13) #5
  %16 = load ptr, ptr %7, align 8, !tbaa !3
  %17 = load ptr, ptr %8, align 8, !tbaa !22
  %18 = load i64, ptr %9, align 8, !tbaa !23
  %19 = load ptr, ptr %10, align 8, !tbaa !22
  %20 = load i64, ptr %11, align 8, !tbaa !23
  %21 = call i32 @ossl_cipher_generic_einit(ptr noundef %16, ptr noundef %17, i64 noundef %18, ptr noundef %19, i64 noundef %20, ptr noundef null)
  store i32 %21, ptr %13, align 4, !tbaa !26
  %22 = load i32, ptr %13, align 4, !tbaa !26
  %23 = icmp ne i32 %22, 0
  br i1 %23, label %24, label %37

24:                                               ; preds = %6
  %25 = load ptr, ptr %10, align 8, !tbaa !22
  %26 = icmp ne ptr %25, null
  br i1 %26, label %27, label %37

27:                                               ; preds = %24
  call void @llvm.lifetime.start.p0(i64 8, ptr %14) #5
  %28 = load ptr, ptr %7, align 8, !tbaa !3
  store ptr %28, ptr %14, align 8, !tbaa !27
  call void @llvm.lifetime.start.p0(i64 8, ptr %15) #5
  %29 = load ptr, ptr %14, align 8, !tbaa !27
  %30 = getelementptr inbounds nuw %struct.prov_cipher_ctx_st, ptr %29, i32 0, i32 19
  %31 = load ptr, ptr %30, align 8, !tbaa !29
  store ptr %31, ptr %15, align 8, !tbaa !30
  %32 = load ptr, ptr %15, align 8, !tbaa !30
  %33 = getelementptr inbounds nuw %struct.prov_cipher_hw_chacha_aead_st, ptr %32, i32 0, i32 2
  %34 = load ptr, ptr %33, align 8, !tbaa !32
  %35 = load ptr, ptr %14, align 8, !tbaa !27
  %36 = call i32 %34(ptr noundef %35)
  call void @llvm.lifetime.end.p0(i64 8, ptr %15) #5
  call void @llvm.lifetime.end.p0(i64 8, ptr %14) #5
  br label %37

37:                                               ; preds = %27, %24, %6
  %38 = load i32, ptr %13, align 4, !tbaa !26
  %39 = icmp ne i32 %38, 0
  br i1 %39, label %40, label %46

40:                                               ; preds = %37
  %41 = load ptr, ptr %7, align 8, !tbaa !3
  %42 = load ptr, ptr %12, align 8, !tbaa !24
  %43 = call i32 @chacha20_poly1305_set_ctx_params(ptr noundef %41, ptr noundef %42)
  %44 = icmp ne i32 %43, 0
  br i1 %44, label %46, label %45

45:                                               ; preds = %40
  store i32 0, ptr %13, align 4, !tbaa !26
  br label %46

46:                                               ; preds = %45, %40, %37
  %47 = load i32, ptr %13, align 4, !tbaa !26
  call void @llvm.lifetime.end.p0(i64 4, ptr %13) #5
  ret i32 %47
}